target datalayout = "e-m:e-p270:32:32-p271:32:32-p272:64:64-i64:64-i128:128-f80:128-n8:16:32:64-S128"
target triple = "x86_64-pc-linux-gnu"

%struct._zval_struct = type { %union._zend_value, %union.anon, %union.anon.2 }
%union._zend_value = type { i64 }
%union.anon = type { i32 }
%union.anon.2 = type { i32 }
%struct._zend_array = type { %struct._zend_refcounted_h, %union.anon.4, i32, %union.anon.6, i32, i32, i32, i32, i64, ptr }
%struct._zend_refcounted_h = type { i32, %union.anon.3 }
%union.anon.3 = type { i32 }
%union.anon.4 = type { i32 }
%union.anon.6 = type { ptr }
%struct.php_cli_server = type { i32, %struct.php_cli_server_poller, i32, ptr, i32, i32, ptr, i64, ptr, i64, i32, %struct._zend_array, %struct._zend_array }
%struct.php_cli_server_poller = type { %struct.fd_set, %struct.fd_set, %struct.anon.9, i32 }
%struct.fd_set = type { [16 x i64] }
%struct.anon.9 = type { %struct.fd_set, %struct.fd_set }

; Function Attrs: alwaysinline nounwind uwtable
define internal ptr @zend_hash_str_find_ptr(ptr noundef %0, ptr noundef %1, i64 noundef %2) #13 {
  %4 = alloca ptr, align 8
  %5 = alloca ptr, align 8
  %6 = alloca ptr, align 8
  %7 = alloca i64, align 8
  %8 = alloca ptr, align 8
  %9 = alloca i32, align 4
  store ptr %0, ptr %5, align 8, !tbaa !62
  store ptr %1, ptr %6, align 8, !tbaa !67
  store i64 %2, ptr %7, align 8, !tbaa !68
  call void @llvm.lifetime.start.p0(i64 8, ptr %8) #20
  %10 = load ptr, ptr %5, align 8, !tbaa !62
  %11 = load ptr, ptr %6, align 8, !tbaa !67
  %12 = load i64, ptr %7, align 8, !tbaa !68
  %13 = call ptr @zend_hash_str_find(ptr noundef %10, ptr noundef %11, i64 noundef %12)
  store ptr %13, ptr %8, align 8, !tbaa !9
  %14 = load ptr, ptr %8, align 8, !tbaa !9
  %15 = icmp ne ptr %14, null
  br i1 %15, label %16, label %24

16:                                               ; preds = %3
  %17 = load ptr, ptr %8, align 8, !tbaa !9
  %18 = getelementptr inbounds nuw %struct._zval_struct, ptr %17, i32 0, i32 0
  %19 = load ptr, ptr %18, align 8, !tbaa !11
  %20 = icmp ne ptr %19, null
  call void @llvm.assume(i1 %20)
  %21 = load ptr, ptr %8, align 8, !tbaa !9
  %22 = getelementptr inbounds nuw %struct._zval_struct, ptr %21, i32 0, i32 0
  %23 = load ptr, ptr %22, align 8, !tbaa !11
  store ptr %23, ptr %4, align 8
  store i32 1, ptr %9, align 4
  br label %25

24:                                               ; preds = %3
  store ptr null, ptr %4, align 8
  store i32 1, ptr %9, align 4
  br label %25

25:                                               ; preds = %24, %16
  call void @llvm.lifetime.end.p0(i64 8, ptr %8) #20
  %26 = load ptr, ptr %4, align 8
  ret ptr %26
}

; Function Attrs: nounwind uwtable
define internal ptr @get_mime_type(ptr noundef %0, ptr noundef %1, i64 noundef %2) #0 {
  %4 = alloca ptr, align 8
  %5 = alloca ptr, align 8
  %6 = alloca i64, align 8
  %7 = alloca ptr, align 8
  %8 = alloca i8, align 1
  %9 = alloca ptr, align 8
  store ptr %0, ptr %4, align 8, !tbaa !125
  store ptr %1, ptr %5, align 8, !tbaa !67
  store i64 %2, ptr %6, align 8, !tbaa !68
  call void @llvm.lifetime.start.p0(i64 8, ptr %7) #20
  call void @llvm.lifetime.start.p0(i64 1, ptr %8) #20
  call void @llvm.lifetime.start.p0(i64 8, ptr %9) #20
  %10 = load i64, ptr %6, align 8, !tbaa !68
  %11 = add i64 %10, 1
  %12 = icmp ugt i64 %11, 32768
  %13 = xor i1 %12, true
  %14 = xor i1 %13, true
  %15 = zext i1 %14 to i32
  %16 = sext i32 %15 to i64
  %17 = call i64 @llvm.expect.i64(i64 %16, i64 0)
  %18 = icmp ne i64 %17, 0
  %19 = zext i1 %18 to i8
  store i8 %19, ptr %8, align 1, !tbaa !69
  br i1 %18, label %20, label %284

20:                                               ; preds = %3
  %21 = load i64, ptr %6, align 8, !tbaa !68
  %22 = add i64 %21, 1
  %23 = call i1 @llvm.is.constant.i64(i64 %22)
  br i1 %23, label %24, label %278

24:                                               ; preds = %20
  %25 = load i64, ptr %6, align 8, !tbaa !68
  %26 = add i64 %25, 1
  %27 = icmp ule i64 %26, 8
  br i1 %27, label %28, label %30

28:                                               ; preds = %24
  %29 = call noalias ptr @_emalloc_8()
  br label %276

30:                                               ; preds = %24
  %31 = load i64, ptr %6, align 8, !tbaa !68
  %32 = add i64 %31, 1
  %33 = icmp ule i64 %32, 16
  br i1 %33, label %34, label %36

34:                                               ; preds = %30
  %35 = call noalias ptr @_emalloc_16()
  br label %274

36:                                               ; preds = %30
  %37 = load i64, ptr %6, align 8, !tbaa !68
  %38 = add i64 %37, 1
  %39 = icmp ule i64 %38, 24
  br i1 %39, label %40, label %42

40:                                               ; preds = %36
  %41 = call noalias ptr @_emalloc_24()
  br label %272

42:                                               ; preds = %36
  %43 = load i64, ptr %6, align 8, !tbaa !68
  %44 = add i64 %43, 1
  %45 = icmp ule i64 %44, 32
  br i1 %45, label %46, label %48

46:                                               ; preds = %42
  %47 = call noalias ptr @_emalloc_32()
  br label %270

48:                                               ; preds = %42
  %49 = load i64, ptr %6, align 8, !tbaa !68
  %50 = add i64 %49, 1
  %51 = icmp ule i64 %50, 40
  br i1 %51, label %52, label %54

52:                                               ; preds = %48
  %53 = call noalias ptr @_emalloc_40()
  br label %268

54:                                               ; preds = %48
  %55 = load i64, ptr %6, align 8, !tbaa !68
  %56 = add i64 %55, 1
  %57 = icmp ule i64 %56, 48
  br i1 %57, label %58, label %60

58:                                               ; preds = %54
  %59 = call noalias ptr @_emalloc_48()
  br label %266

60:                                               ; preds = %54
  %61 = load i64, ptr %6, align 8, !tbaa !68
  %62 = add i64 %61, 1
  %63 = icmp ule i64 %62, 56
  br i1 %63, label %64, label %66

64:                                               ; preds = %60
  %65 = call noalias ptr @_emalloc_56()
  br label %264

66:                                               ; preds = %60
  %67 = load i64, ptr %6, align 8, !tbaa !68
  %68 = add i64 %67, 1
  %69 = icmp ule i64 %68, 64
  br i1 %69, label %70, label %72

70:                                               ; preds = %66
  %71 = call noalias ptr @_emalloc_64()
  br label %262

72:                                               ; preds = %66
  %73 = load i64, ptr %6, align 8, !tbaa !68
  %74 = add i64 %73, 1
  %75 = icmp ule i64 %74, 80
  br i1 %75, label %76, label %78

76:                                               ; preds = %72
  %77 = call noalias ptr @_emalloc_80()
  br label %260

78:                                               ; preds = %72
  %79 = load i64, ptr %6, align 8, !tbaa !68
  %80 = add i64 %79, 1
  %81 = icmp ule i64 %80, 96
  br i1 %81, label %82, label %84

82:                                               ; preds = %78
  %83 = call noalias ptr @_emalloc_96()
  br label %258

84:                                               ; preds = %78
  %85 = load i64, ptr %6, align 8, !tbaa !68
  %86 = add i64 %85, 1
  %87 = icmp ule i64 %86, 112
  br i1 %87, label %88, label %90

88:                                               ; preds = %84
  %89 = call noalias ptr @_emalloc_112()
  br label %256

90:                                               ; preds = %84
  %91 = load i64, ptr %6, align 8, !tbaa !68
  %92 = add i64 %91, 1
  %93 = icmp ule i64 %92, 128
  br i1 %93, label %94, label %96

94:                                               ; preds = %90
  %95 = call noalias ptr @_emalloc_128()
  br label %254

96:                                               ; preds = %90
  %97 = load i64, ptr %6, align 8, !tbaa !68
  %98 = add i64 %97, 1
  %99 = icmp ule i64 %98, 160
  br i1 %99, label %100, label %102

100:                                              ; preds = %96
  %101 = call noalias ptr @_emalloc_160()
  br label %252

102:                                              ; preds = %96
  %103 = load i64, ptr %6, align 8, !tbaa !68
  %104 = add i64 %103, 1
  %105 = icmp ule i64 %104, 192
  br i1 %105, label %106, label %108

106:                                              ; preds = %102
  %107 = call noalias ptr @_emalloc_192()
  br label %250

108:                                              ; preds = %102
  %109 = load i64, ptr %6, align 8, !tbaa !68
  %110 = add i64 %109, 1
  %111 = icmp ule i64 %110, 224
  br i1 %111, label %112, label %114

112:                                              ; preds = %108
  %113 = call noalias ptr @_emalloc_224()
  br label %248

114:                                              ; preds = %108
  %115 = load i64, ptr %6, align 8, !tbaa !68
  %116 = add i64 %115, 1
  %117 = icmp ule i64 %116, 256
  br i1 %117, label %118, label %120

118:                                              ; preds = %114
  %119 = call noalias ptr @_emalloc_256()
  br label %246

120:                                              ; preds = %114
  %121 = load i64, ptr %6, align 8, !tbaa !68
  %122 = add i64 %121, 1
  %123 = icmp ule i64 %122, 320
  br i1 %123, label %124, label %126

124:                                              ; preds = %120
  %125 = call noalias ptr @_emalloc_320()
  br label %244

126:                                              ; preds = %120
  %127 = load i64, ptr %6, align 8, !tbaa !68
  %128 = add i64 %127, 1
  %129 = icmp ule i64 %128, 384
  br i1 %129, label %130, label %132

130:                                              ; preds = %126
  %131 = call noalias ptr @_emalloc_384()
  br label %242

132:                                              ; preds = %126
  %133 = load i64, ptr %6, align 8, !tbaa !68
  %134 = add i64 %133, 1
  %135 = icmp ule i64 %134, 448
  br i1 %135, label %136, label %138

136:                                              ; preds = %132
  %137 = call noalias ptr @_emalloc_448()
  br label %240

138:                                              ; preds = %132
  %139 = load i64, ptr %6, align 8, !tbaa !68
  %140 = add i64 %139, 1
  %141 = icmp ule i64 %140, 512
  br i1 %141, label %142, label %144

142:                                              ; preds = %138
  %143 = call noalias ptr @_emalloc_512()
  br label %238

144:                                              ; preds = %138
  %145 = load i64, ptr %6, align 8, !tbaa !68
  %146 = add i64 %145, 1
  %147 = icmp ule i64 %146, 640
  br i1 %147, label %148, label %150

148:                                              ; preds = %144
  %149 = call noalias ptr @_emalloc_640()
  br label %236

150:                                              ; preds = %144
  %151 = load i64, ptr %6, align 8, !tbaa !68
  %152 = add i64 %151, 1
  %153 = icmp ule i64 %152, 768
  br i1 %153, label %154, label %156

154:                                              ; preds = %150
  %155 = call noalias ptr @_emalloc_768()
  br label %234

156:                                              ; preds = %150
  %157 = load i64, ptr %6, align 8, !tbaa !68
  %158 = add i64 %157, 1
  %159 = icmp ule i64 %158, 896
  br i1 %159, label %160, label %162

160:                                              ; preds = %156
  %161 = call noalias ptr @_emalloc_896()
  br label %232

162:                                              ; preds = %156
  %163 = load i64, ptr %6, align 8, !tbaa !68
  %164 = add i64 %163, 1
  %165 = icmp ule i64 %164, 1024
  br i1 %165, label %166, label %168

166:                                              ; preds = %162
  %167 = call noalias ptr @_emalloc_1024()
  br label %230

168:                                              ; preds = %162
  %169 = load i64, ptr %6, align 8, !tbaa !68
  %170 = add i64 %169, 1
  %171 = icmp ule i64 %170, 1280
  br i1 %171, label %172, label %174

172:                                              ; preds = %168
  %173 = call noalias ptr @_emalloc_1280()
  br label %228

174:                                              ; preds = %168
  %175 = load i64, ptr %6, align 8, !tbaa !68
  %176 = add i64 %175, 1
  %177 = icmp ule i64 %176, 1536
  br i1 %177, label %178, label %180

178:                                              ; preds = %174
  %179 = call noalias ptr @_emalloc_1536()
  br label %226

180:                                              ; preds = %174
  %181 = load i64, ptr %6, align 8, !tbaa !68
  %182 = add i64 %181, 1
  %183 = icmp ule i64 %182, 1792
  br i1 %183, label %184, label %186

184:                                              ; preds = %180
  %185 = call noalias ptr @_emalloc_1792()
  br label %224

186:                                              ; preds = %180
  %187 = load i64, ptr %6, align 8, !tbaa !68
  %188 = add i64 %187, 1
  %189 = icmp ule i64 %188, 2048
  br i1 %189, label %190, label %192

190:                                              ; preds = %186
  %191 = call noalias ptr @_emalloc_2048()
  br label %222

192:                                              ; preds = %186
  %193 = load i64, ptr %6, align 8, !tbaa !68
  %194 = add i64 %193, 1
  %195 = icmp ule i64 %194, 2560
  br i1 %195, label %196, label %198

196:                                              ; preds = %192
  %197 = call noalias ptr @_emalloc_2560()
  br label %220

198:                                              ; preds = %192
  %199 = load i64, ptr %6, align 8, !tbaa !68
  %200 = add i64 %199, 1
  %201 = icmp ule i64 %200, 3072
  br i1 %201, label %202, label %204

202:                                              ; preds = %198
  %203 = call noalias ptr @_emalloc_3072()
  br label %218

204:                                              ; preds = %198
  %205 = load i64, ptr %6, align 8, !tbaa !68
  %206 = add i64 %205, 1
  %207 = icmp ule i64 %206, 2093056
  br i1 %207, label %208, label %212

208:                                              ; preds = %204
  %209 = load i64, ptr %6, align 8, !tbaa !68
  %210 = add i64 %209, 1
  %211 = call noalias ptr @_emalloc_large(i64 noundef %210) #22
  br label %216

212:                                              ; preds = %204
  %213 = load i64, ptr %6, align 8, !tbaa !68
  %214 = add i64 %213, 1
  %215 = call noalias ptr @_emalloc_huge(i64 noundef %214) #22
  br label %216

216:                                              ; preds = %212, %208
  %217 = phi ptr [ %211, %208 ], [ %215, %212 ]
  br label %218

218:                                              ; preds = %216, %202
  %219 = phi ptr [ %203, %202 ], [ %217, %216 ]
  br label %220

220:                                              ; preds = %218, %196
  %221 = phi ptr [ %197, %196 ], [ %219, %218 ]
  br label %222

222:                                              ; preds = %220, %190
  %223 = phi ptr [ %191, %190 ], [ %221, %220 ]
  br label %224

224:                                              ; preds = %222, %184
  %225 = phi ptr [ %185, %184 ], [ %223, %222 ]
  br label %226

226:                                              ; preds = %224, %178
  %227 = phi ptr [ %179, %178 ], [ %225, %224 ]
  br label %228

228:                                              ; preds = %226, %172
  %229 = phi ptr [ %173, %172 ], [ %227, %226 ]
  br label %230

230:                                              ; preds = %228, %166
  %231 = phi ptr [ %167, %166 ], [ %229, %228 ]
  br label %232

232:                                              ; preds = %230, %160
  %233 = phi ptr [ %161, %160 ], [ %231, %230 ]
  br label %234

234:                                              ; preds = %232, %154
  %235 = phi ptr [ %155, %154 ], [ %233, %232 ]
  br label %236

236:                                              ; preds = %234, %148
  %237 = phi ptr [ %149, %148 ], [ %235, %234 ]
  br label %238

238:                                              ; preds = %236, %142
  %239 = phi ptr [ %143, %142 ], [ %237, %236 ]
  br label %240

240:                                              ; preds = %238, %136
  %241 = phi ptr [ %137, %136 ], [ %239, %238 ]
  br label %242

242:                                              ; preds = %240, %130
  %243 = phi ptr [ %131, %130 ], [ %241, %240 ]
  br label %244

244:                                              ; preds = %242, %124
  %245 = phi ptr [ %125, %124 ], [ %243, %242 ]
  br label %246

246:                                              ; preds = %244, %118
  %247 = phi ptr [ %119, %118 ], [ %245, %244 ]
  br label %248

248:                                              ; preds = %246, %112
  %249 = phi ptr [ %113, %112 ], [ %247, %246 ]
  br label %250

250:                                              ; preds = %248, %106
  %251 = phi ptr [ %107, %106 ], [ %249, %248 ]
  br label %252

252:                                              ; preds = %250, %100
  %253 = phi ptr [ %101, %100 ], [ %251, %250 ]
  br label %254

254:                                              ; preds = %252, %94
  %255 = phi ptr [ %95, %94 ], [ %253, %252 ]
  br label %256

256:                                              ; preds = %254, %88
  %257 = phi ptr [ %89, %88 ], [ %255, %254 ]
  br label %258

258:                                              ; preds = %256, %82
  %259 = phi ptr [ %83, %82 ], [ %257, %256 ]
  br label %260

260:                                              ; preds = %258, %76
  %261 = phi ptr [ %77, %76 ], [ %259, %258 ]
  br label %262

262:                                              ; preds = %260, %70
  %263 = phi ptr [ %71, %70 ], [ %261, %260 ]
  br label %264

264:                                              ; preds = %262, %64
  %265 = phi ptr [ %65, %64 ], [ %263, %262 ]
  br label %266

266:                                              ; preds = %264, %58
  %267 = phi ptr [ %59, %58 ], [ %265, %264 ]
  br label %268

268:                                              ; preds = %266, %52
  %269 = phi ptr [ %53, %52 ], [ %267, %266 ]
  br label %270

270:                                              ; preds = %268, %46
  %271 = phi ptr [ %47, %46 ], [ %269, %268 ]
  br label %272

272:                                              ; preds = %270, %40
  %273 = phi ptr [ %41, %40 ], [ %271, %270 ]
  br label %274

274:                                              ; preds = %272, %34
  %275 = phi ptr [ %35, %34 ], [ %273, %272 ]
  br label %276

276:                                              ; preds = %274, %28
  %277 = phi ptr [ %29, %28 ], [ %275, %274 ]
  br label %282

278:                                              ; preds = %20
  %279 = load i64, ptr %6, align 8, !tbaa !68
  %280 = add i64 %279, 1
  %281 = call noalias ptr @_emalloc(i64 noundef %280) #22
  br label %282

282:                                              ; preds = %278, %276
  %283 = phi ptr [ %277, %276 ], [ %281, %278 ]
  br label %288

284:                                              ; preds = %3
  %285 = load i64, ptr %6, align 8, !tbaa !68
  %286 = add i64 %285, 1
  %287 = alloca i8, i64 %286, align 16
  br label %288

288:                                              ; preds = %284, %282
  %289 = phi ptr [ %283, %282 ], [ %287, %284 ]
  store ptr %289, ptr %9, align 8, !tbaa !67
  %290 = load ptr, ptr %9, align 8, !tbaa !67
  %291 = load ptr, ptr %5, align 8, !tbaa !67
  %292 = load i64, ptr %6, align 8, !tbaa !68
  %293 = call ptr @zend_str_tolower_copy(ptr noundef %290, ptr noundef %291, i64 noundef %292)
  %294 = load ptr, ptr %4, align 8, !tbaa !125
  %295 = getelementptr inbounds nuw %struct.php_cli_server, ptr %294, i32 0, i32 12
  %296 = load ptr, ptr %9, align 8, !tbaa !67
  %297 = load i64, ptr %6, align 8, !tbaa !68
  %298 = call ptr @zend_hash_str_find_ptr(ptr noundef %295, ptr noundef %296, i64 noundef %297)
  store ptr %298, ptr %7, align 8, !tbaa !67
  br label %299

299:                                              ; preds = %288
  %300 = load i8, ptr %8, align 1, !tbaa !69, !range !70, !noundef !71
  %301 = trunc i8 %300 to i1
  %302 = xor i1 %301, true
  %303 = xor i1 %302, true
  %304 = zext i1 %303 to i32
  %305 = sext i32 %304 to i64
  %306 = call i64 @llvm.expect.i64(i64 %305, i64 0)
  %307 = icmp ne i64 %306, 0
  br i1 %307, label %308, label %310

308:                                              ; preds = %299
  %309 = load ptr, ptr %9, align 8, !tbaa !67
  call void @_efree(ptr noundef %309)
  br label %310

310:                                              ; preds = %308, %299
  br label %311

311:                                              ; preds = %310
  br label %312

312:                                              ; preds = %311
  %313 = load ptr, ptr %7, align 8, !tbaa !67
  call void @llvm.lifetime.end.p0(i64 8, ptr %9) #20
  call void @llvm.lifetime.end.p0(i64 1, ptr %8) #20
  call void @llvm.lifetime.end.p0(i64 8, ptr %7) #20
  ret ptr %313
}