; Function Attrs: nounwind uwtable
define internal fastcc noundef ptr @get_mime_type(ptr noundef %0, ptr noundef %1, i64 noundef %2) unnamed_addr #0 {
  %4 = add i64 %2, 1
  %5 = icmp ugt i64 %4, 32768
  br i1 %5, label %6, label %8, !prof !63

6:                                                ; preds = %3
  %7 = tail call noalias ptr @_emalloc(i64 noundef %4) #31
  br label %10

8:                                                ; preds = %3
  %9 = alloca i8, i64 %4, align 16
  br label %10

10:                                               ; preds = %6, %8
  %11 = phi ptr [ %9, %8 ], [ %7, %6 ]
  %12 = call ptr @zend_str_tolower_copy(ptr noundef %11, ptr noundef %1, i64 noundef %2) #29
  %13 = getelementptr inbounds nuw i8, ptr %0, i64 648
  %14 = call ptr @zend_hash_str_find(ptr noundef nonnull %13, ptr noundef %11, i64 noundef %2) #29
  %.not.i = icmp eq ptr %14, null
  br i1 %.not.i, label %zend_hash_str_find_ptr.exit, label %15

15:                                               ; preds = %10
  %16 = load ptr, ptr %14, align 8, !tbaa !4, !nonnull !82, !noundef !82
  br label %zend_hash_str_find_ptr.exit

zend_hash_str_find_ptr.exit:                      ; preds = %10, %15
  %.0.i = phi ptr [ %16, %15 ], [ null, %10 ]
  br i1 %5, label %17, label %18, !prof !63

17:                                               ; preds = %zend_hash_str_find_ptr.exit
  call void @_efree(ptr noundef %11) #29
  br label %18

18:                                               ; preds = %17, %zend_hash_str_find_ptr.exit
  ret ptr %.0.i
}